(dp1
S'username'
p2
(dp3
S'sortable'
p4
I2
sS'sql'
p5
S'VARCHAR(512)'
p6
sS'length'
p7
I512
sS'notnull'
p8
I00
sS'unique'
p9
I00
sS'type'
p10
S'string'
p11
ssS'id'
p12
(dp13
g4
I1
sg5
S'SERIAL PRIMARY KEY'
p14
sg7
I512
sg8
I00
sg9
I00
sg10
S'id'
p15
ss.